; Function Attrs: null_pointer_is_valid sspstrong uwtable
define internal noundef i32 @dissect_emule_aich_hash_list_entry(ptr noundef %0, ptr readnone captures(none) %1, i32 noundef %2, ptr noundef %3) #0 {
  %5 = load i32, ptr @hf_emule_aich_hash_entry, align 4
  %6 = tail call ptr @proto_tree_add_item(ptr noundef %3, i32 noundef %5, ptr noundef %0, i32 noundef %2, i32 noundef 22, i32 noundef 0)
  %7 = load i32, ptr @ett_emule_aichhash, align 4
  %8 = tail call ptr @proto_item_add_subtree(ptr noundef %6, i32 noundef %7)
  %9 = tail call zeroext i16 @tvb_get_letohs(ptr noundef %0, i32 noundef %2)
  %10 = load i32, ptr @hf_emule_aich_hash_id, align 4
  %11 = zext i16 %9 to i32
  %12 = tail call ptr @proto_tree_add_uint(ptr noundef %8, i32 noundef %10, ptr noundef %0, i32 noundef %2, i32 noundef 2, i32 noundef %11)
  %13 = load i32, ptr @hf_emule_aich_hash, align 4
  %14 = add i32 %2, 2
  %15 = tail call ptr @proto_tree_add_item(ptr noundef %8, i32 noundef %13, ptr noundef %0, i32 noundef %14, i32 noundef 20, i32 noundef 0)
  %16 = add i32 %2, 22
  ret i32 %16
}